; ModuleID = '46/1075.c'
source_filename = "46/1075.c"
target datalayout = "e-m:e-p270:32:32-p271:32:32-p272:64:64-i64:64-f80:128-n8:16:32:64-S128"
target triple = "x86_64-pc-linux-gnu"

@.str = private unnamed_addr constant [5 x i8] c"%d%d\00", align 1
@.str.1 = private unnamed_addr constant [3 x i8] c"%d\00", align 1
@.str.2 = private unnamed_addr constant [4 x i8] c"%d\0A\00", align 1

; Function Attrs: noinline nounwind uwtable
define dso_local i32 @main() #0 {
  %1 = alloca i32, align 4
  %2 = alloca [100 x [100 x i32]], align 16
  %3 = alloca i32, align 4
  %4 = alloca i32, align 4
  %5 = alloca i32, align 4
  %6 = alloca i32, align 4
  %7 = alloca i32, align 4
  store i32 0, i32* %1, align 4
  %8 = call i32 (i8*, ...) @__isoc99_scanf(i8* getelementptr inbounds ([5 x i8], [5 x i8]* @.str, i64 0, i64 0), i32* %6, i32* %7)
  store i32 0, i32* %3, align 4
  br label %9

9:                                                ; preds = %30, %0
  %10 = load i32, i32* %3, align 4
  %11 = load i32, i32* %6, align 4
  %12 = icmp slt i32 %10, %11
  br i1 %12, label %13, label %33

13:                                               ; preds = %9
  store i32 0, i32* %4, align 4
  br label %14

14:                                               ; preds = %26, %13
  %15 = load i32, i32* %4, align 4
  %16 = load i32, i32* %7, align 4
  %17 = icmp slt i32 %15, %16
  br i1 %17, label %18, label %29

18:                                               ; preds = %14
  %19 = load i32, i32* %3, align 4
  %20 = sext i32 %19 to i64
  %21 = getelementptr inbounds [100 x [100 x i32]], [100 x [100 x i32]]* %2, i64 0, i64 %20
  %22 = load i32, i32* %4, align 4
  %23 = sext i32 %22 to i64
  %24 = getelementptr inbounds [100 x i32], [100 x i32]* %21, i64 0, i64 %23
  %25 = call i32 (i8*, ...) @__isoc99_scanf(i8* getelementptr inbounds ([3 x i8], [3 x i8]* @.str.1, i64 0, i64 0), i32* %24)
  br label %26

26:                                               ; preds = %18
  %27 = load i32, i32* %4, align 4
  %28 = add nsw i32 %27, 1
  store i32 %28, i32* %4, align 4
  br label %14

29:                                               ; preds = %14
  br label %30

30:                                               ; preds = %29
  %31 = load i32, i32* %3, align 4
  %32 = add nsw i32 %31, 1
  store i32 %32, i32* %3, align 4
  br label %9

33:                                               ; preds = %9
  store i32 0, i32* %5, align 4
  br label %34

34:                                               ; preds = %158, %33
  %35 = load i32, i32* %5, align 4
  %36 = load i32, i32* %6, align 4
  %37 = add nsw i32 %36, 1
  %38 = sdiv i32 %37, 2
  %39 = icmp slt i32 %35, %38
  br i1 %39, label %40, label %46

40:                                               ; preds = %34
  %41 = load i32, i32* %5, align 4
  %42 = load i32, i32* %7, align 4
  %43 = add nsw i32 %42, 1
  %44 = sdiv i32 %43, 2
  %45 = icmp slt i32 %41, %44
  br label %46

46:                                               ; preds = %40, %34
  %47 = phi i1 [ false, %34 ], [ %45, %40 ]
  br i1 %47, label %48, label %161

48:                                               ; preds = %46
  %49 = load i32, i32* %5, align 4
  store i32 %49, i32* %3, align 4
  %50 = load i32, i32* %5, align 4
  store i32 %50, i32* %4, align 4
  br label %51

51:                                               ; preds = %66, %48
  %52 = load i32, i32* %4, align 4
  %53 = load i32, i32* %7, align 4
  %54 = load i32, i32* %5, align 4
  %55 = sub nsw i32 %53, %54
  %56 = icmp slt i32 %52, %55
  br i1 %56, label %57, label %69

57:                                               ; preds = %51
  %58 = load i32, i32* %3, align 4
  %59 = sext i32 %58 to i64
  %60 = getelementptr inbounds [100 x [100 x i32]], [100 x [100 x i32]]* %2, i64 0, i64 %59
  %61 = load i32, i32* %4, align 4
  %62 = sext i32 %61 to i64
  %63 = getelementptr inbounds [100 x i32], [100 x i32]* %60, i64 0, i64 %62
  %64 = load i32, i32* %63, align 4
  %65 = call i32 (i8*, ...) @printf(i8* getelementptr inbounds ([4 x i8], [4 x i8]* @.str.2, i64 0, i64 0), i32 %64)
  br label %66

66:                                               ; preds = %57
  %67 = load i32, i32* %4, align 4
  %68 = add nsw i32 %67, 1
  store i32 %68, i32* %4, align 4
  br label %51

69:                                               ; preds = %51
  %70 = load i32, i32* %5, align 4
  %71 = load i32, i32* %6, align 4
  %72 = load i32, i32* %5, align 4
  %73 = sub nsw i32 %71, %72
  %74 = sub nsw i32 %73, 1
  %75 = icmp ne i32 %70, %74
  br i1 %75, label %76, label %157

76:                                               ; preds = %69
  %77 = load i32, i32* %7, align 4
  %78 = load i32, i32* %5, align 4
  %79 = sub nsw i32 %77, %78
  %80 = sub nsw i32 %79, 1
  store i32 %80, i32* %4, align 4
  %81 = load i32, i32* %5, align 4
  %82 = add nsw i32 %81, 1
  store i32 %82, i32* %3, align 4
  br label %83

83:                                               ; preds = %98, %76
  %84 = load i32, i32* %3, align 4
  %85 = load i32, i32* %6, align 4
  %86 = load i32, i32* %5, align 4
  %87 = sub nsw i32 %85, %86
  %88 = icmp slt i32 %84, %87
  br i1 %88, label %89, label %101

89:                                               ; preds = %83
  %90 = load i32, i32* %3, align 4
  %91 = sext i32 %90 to i64
  %92 = getelementptr inbounds [100 x [100 x i32]], [100 x [100 x i32]]* %2, i64 0, i64 %91
  %93 = load i32, i32* %4, align 4
  %94 = sext i32 %93 to i64
  %95 = getelementptr inbounds [100 x i32], [100 x i32]* %92, i64 0, i64 %94
  %96 = load i32, i32* %95, align 4
  %97 = call i32 (i8*, ...) @printf(i8* getelementptr inbounds ([4 x i8], [4 x i8]* @.str.2, i64 0, i64 0), i32 %96)
  br label %98

98:                                               ; preds = %89
  %99 = load i32, i32* %3, align 4
  %100 = add nsw i32 %99, 1
  store i32 %100, i32* %3, align 4
  br label %83

101:                                              ; preds = %83
  %102 = load i32, i32* %5, align 4
  %103 = load i32, i32* %7, align 4
  %104 = load i32, i32* %5, align 4
  %105 = sub nsw i32 %103, %104
  %106 = sub nsw i32 %105, 1
  %107 = icmp ne i32 %102, %106
  br i1 %107, label %108, label %156

108:                                              ; preds = %101
  %109 = load i32, i32* %6, align 4
  %110 = load i32, i32* %5, align 4
  %111 = sub nsw i32 %109, %110
  %112 = sub nsw i32 %111, 1
  store i32 %112, i32* %3, align 4
  %113 = load i32, i32* %7, align 4
  %114 = load i32, i32* %5, align 4
  %115 = sub nsw i32 %113, %114
  %116 = sub nsw i32 %115, 2
  store i32 %116, i32* %4, align 4
  br label %117

117:                                              ; preds = %130, %108
  %118 = load i32, i32* %4, align 4
  %119 = load i32, i32* %5, align 4
  %120 = icmp sge i32 %118, %119
  br i1 %120, label %121, label %133

121:                                              ; preds = %117
  %122 = load i32, i32* %3, align 4
  %123 = sext i32 %122 to i64
  %124 = getelementptr inbounds [100 x [100 x i32]], [100 x [100 x i32]]* %2, i64 0, i64 %123
  %125 = load i32, i32* %4, align 4
  %126 = sext i32 %125 to i64
  %127 = getelementptr inbounds [100 x i32], [100 x i32]* %124, i64 0, i64 %126
  %128 = load i32, i32* %127, align 4
  %129 = call i32 (i8*, ...) @printf(i8* getelementptr inbounds ([4 x i8], [4 x i8]* @.str.2, i64 0, i64 0), i32 %128)
  br label %130

130:                                              ; preds = %121
  %131 = load i32, i32* %4, align 4
  %132 = add nsw i32 %131, -1
  store i32 %132, i32* %4, align 4
  br label %117

133:                                              ; preds = %117
  %134 = load i32, i32* %5, align 4
  store i32 %134, i32* %4, align 4
  %135 = load i32, i32* %6, align 4
  %136 = load i32, i32* %5, align 4
  %137 = sub nsw i32 %135, %136
  %138 = sub nsw i32 %137, 2
  store i32 %138, i32* %3, align 4
  br label %139

139:                                              ; preds = %152, %133
  %140 = load i32, i32* %3, align 4
  %141 = load i32, i32* %5, align 4
  %142 = icmp sgt i32 %140, %141
  br i1 %142, label %143, label %155

143:                                              ; preds = %139
  %144 = load i32, i32* %3, align 4
  %145 = sext i32 %144 to i64
  %146 = getelementptr inbounds [100 x [100 x i32]], [100 x [100 x i32]]* %2, i64 0, i64 %145
  %147 = load i32, i32* %4, align 4
  %148 = sext i32 %147 to i64
  %149 = getelementptr inbounds [100 x i32], [100 x i32]* %146, i64 0, i64 %148
  %150 = load i32, i32* %149, align 4
  %151 = call i32 (i8*, ...) @printf(i8* getelementptr inbounds ([4 x i8], [4 x i8]* @.str.2, i64 0, i64 0), i32 %150)
  br label %152

152:                                              ; preds = %143
  %153 = load i32, i32* %3, align 4
  %154 = add nsw i32 %153, -1
  store i32 %154, i32* %3, align 4
  br label %139

155:                                              ; preds = %139
  br label %156

156:                                              ; preds = %155, %101
  br label %157

157:                                              ; preds = %156, %69
  br label %158

158:                                              ; preds = %157
  %159 = load i32, i32* %5, align 4
  %160 = add nsw i32 %159, 1
  store i32 %160, i32* %5, align 4
  br label %34

161:                                              ; preds = %46
  ret i32 0
}

declare dso_local i32 @__isoc99_scanf(i8*, ...) #1

declare dso_local i32 @printf(i8*, ...) #1


!llvm.module.flags = !{!0}
!llvm.ident = !{!1}

!0 = !{i32 1, !"wchar_size", i32 4}
!1 = !{!"clang version 10.0.0-4ubuntu1 "}
